; ModuleID = '63/1378.c'
source_filename = "63/1378.c"
target datalayout = "e-m:e-p270:32:32-p271:32:32-p272:64:64-i64:64-f80:128-n8:16:32:64-S128"
target triple = "x86_64-pc-linux-gnu"

@.str = private unnamed_addr constant [3 x i8] c"%d\00", align 1
@.str.1 = private unnamed_addr constant [4 x i8] c" %d\00", align 1
@.str.2 = private unnamed_addr constant [2 x i8] c"\0A\00", align 1

; Function Attrs: noinline nounwind uwtable
define dso_local i32 @main() #0 {
  %1 = alloca i32, align 4
  %2 = alloca i32, align 4
  %3 = alloca i32, align 4
  %4 = alloca i32, align 4
  %5 = alloca i32, align 4
  %6 = alloca [100 x [100 x i32]], align 16
  %7 = alloca [100 x [100 x i32]], align 16
  %8 = alloca [100 x [100 x i32]], align 16
  %9 = alloca i32, align 4
  %10 = alloca i32, align 4
  %11 = alloca i32, align 4
  %12 = alloca i32, align 4
  %13 = alloca i32, align 4
  %14 = alloca i32, align 4
  %15 = alloca i32, align 4
  %16 = alloca i32, align 4
  %17 = alloca i32, align 4
  %18 = alloca i32, align 4
  store i32 0, i32* %1, align 4
  %19 = call i32 (i8*, ...) @__isoc99_scanf(i8* getelementptr inbounds ([3 x i8], [3 x i8]* @.str, i64 0, i64 0), i32* %2)
  %20 = call i32 (i8*, ...) @__isoc99_scanf(i8* getelementptr inbounds ([3 x i8], [3 x i8]* @.str, i64 0, i64 0), i32* %3)
  store i32 0, i32* %9, align 4
  br label %21

21:                                               ; preds = %44, %0
  %22 = load i32, i32* %9, align 4
  %23 = load i32, i32* %2, align 4
  %24 = sub nsw i32 %23, 1
  %25 = icmp sle i32 %22, %24
  br i1 %25, label %26, label %47

26:                                               ; preds = %21
  store i32 0, i32* %10, align 4
  br label %27

27:                                               ; preds = %40, %26
  %28 = load i32, i32* %10, align 4
  %29 = load i32, i32* %3, align 4
  %30 = sub nsw i32 %29, 1
  %31 = icmp sle i32 %28, %30
  br i1 %31, label %32, label %43

32:                                               ; preds = %27
  %33 = load i32, i32* %9, align 4
  %34 = sext i32 %33 to i64
  %35 = getelementptr inbounds [100 x [100 x i32]], [100 x [100 x i32]]* %6, i64 0, i64 %34
  %36 = load i32, i32* %10, align 4
  %37 = sext i32 %36 to i64
  %38 = getelementptr inbounds [100 x i32], [100 x i32]* %35, i64 0, i64 %37
  %39 = call i32 (i8*, ...) @__isoc99_scanf(i8* getelementptr inbounds ([3 x i8], [3 x i8]* @.str, i64 0, i64 0), i32* %38)
  br label %40

40:                                               ; preds = %32
  %41 = load i32, i32* %10, align 4
  %42 = add nsw i32 %41, 1
  store i32 %42, i32* %10, align 4
  br label %27

43:                                               ; preds = %27
  br label %44

44:                                               ; preds = %43
  %45 = load i32, i32* %9, align 4
  %46 = add nsw i32 %45, 1
  store i32 %46, i32* %9, align 4
  br label %21

47:                                               ; preds = %21
  %48 = call i32 (i8*, ...) @__isoc99_scanf(i8* getelementptr inbounds ([3 x i8], [3 x i8]* @.str, i64 0, i64 0), i32* %4)
  %49 = call i32 (i8*, ...) @__isoc99_scanf(i8* getelementptr inbounds ([3 x i8], [3 x i8]* @.str, i64 0, i64 0), i32* %5)
  store i32 0, i32* %11, align 4
  br label %50

50:                                               ; preds = %73, %47
  %51 = load i32, i32* %11, align 4
  %52 = load i32, i32* %4, align 4
  %53 = sub nsw i32 %52, 1
  %54 = icmp sle i32 %51, %53
  br i1 %54, label %55, label %76

55:                                               ; preds = %50
  store i32 0, i32* %12, align 4
  br label %56

56:                                               ; preds = %69, %55
  %57 = load i32, i32* %12, align 4
  %58 = load i32, i32* %5, align 4
  %59 = sub nsw i32 %58, 1
  %60 = icmp sle i32 %57, %59
  br i1 %60, label %61, label %72

61:                                               ; preds = %56
  %62 = load i32, i32* %11, align 4
  %63 = sext i32 %62 to i64
  %64 = getelementptr inbounds [100 x [100 x i32]], [100 x [100 x i32]]* %7, i64 0, i64 %63
  %65 = load i32, i32* %12, align 4
  %66 = sext i32 %65 to i64
  %67 = getelementptr inbounds [100 x i32], [100 x i32]* %64, i64 0, i64 %66
  %68 = call i32 (i8*, ...) @__isoc99_scanf(i8* getelementptr inbounds ([3 x i8], [3 x i8]* @.str, i64 0, i64 0), i32* %67)
  br label %69

69:                                               ; preds = %61
  %70 = load i32, i32* %12, align 4
  %71 = add nsw i32 %70, 1
  store i32 %71, i32* %12, align 4
  br label %56

72:                                               ; preds = %56
  br label %73

73:                                               ; preds = %72
  %74 = load i32, i32* %11, align 4
  %75 = add nsw i32 %74, 1
  store i32 %75, i32* %11, align 4
  br label %50

76:                                               ; preds = %50
  store i32 0, i32* %13, align 4
  br label %77

77:                                               ; preds = %127, %76
  %78 = load i32, i32* %13, align 4
  %79 = load i32, i32* %2, align 4
  %80 = sub nsw i32 %79, 1
  %81 = icmp sle i32 %78, %80
  br i1 %81, label %82, label %130

82:                                               ; preds = %77
  store i32 0, i32* %14, align 4
  br label %83

83:                                               ; preds = %123, %82
  %84 = load i32, i32* %14, align 4
  %85 = load i32, i32* %5, align 4
  %86 = sub nsw i32 %85, 1
  %87 = icmp sle i32 %84, %86
  br i1 %87, label %88, label %126

88:                                               ; preds = %83
  store i32 0, i32* %18, align 4
  store i32 0, i32* %17, align 4
  br label %89

89:                                               ; preds = %112, %88
  %90 = load i32, i32* %17, align 4
  %91 = load i32, i32* %4, align 4
  %92 = sub nsw i32 %91, 1
  %93 = icmp sle i32 %90, %92
  br i1 %93, label %94, label %115

94:                                               ; preds = %89
  %95 = load i32, i32* %18, align 4
  %96 = load i32, i32* %13, align 4
  %97 = sext i32 %96 to i64
  %98 = getelementptr inbounds [100 x [100 x i32]], [100 x [100 x i32]]* %6, i64 0, i64 %97
  %99 = load i32, i32* %17, align 4
  %100 = sext i32 %99 to i64
  %101 = getelementptr inbounds [100 x i32], [100 x i32]* %98, i64 0, i64 %100
  %102 = load i32, i32* %101, align 4
  %103 = load i32, i32* %17, align 4
  %104 = sext i32 %103 to i64
  %105 = getelementptr inbounds [100 x [100 x i32]], [100 x [100 x i32]]* %7, i64 0, i64 %104
  %106 = load i32, i32* %14, align 4
  %107 = sext i32 %106 to i64
  %108 = getelementptr inbounds [100 x i32], [100 x i32]* %105, i64 0, i64 %107
  %109 = load i32, i32* %108, align 4
  %110 = mul nsw i32 %102, %109
  %111 = add nsw i32 %95, %110
  store i32 %111, i32* %18, align 4
  br label %112

112:                                              ; preds = %94
  %113 = load i32, i32* %17, align 4
  %114 = add nsw i32 %113, 1
  store i32 %114, i32* %17, align 4
  br label %89

115:                                              ; preds = %89
  %116 = load i32, i32* %18, align 4
  %117 = load i32, i32* %13, align 4
  %118 = sext i32 %117 to i64
  %119 = getelementptr inbounds [100 x [100 x i32]], [100 x [100 x i32]]* %8, i64 0, i64 %118
  %120 = load i32, i32* %14, align 4
  %121 = sext i32 %120 to i64
  %122 = getelementptr inbounds [100 x i32], [100 x i32]* %119, i64 0, i64 %121
  store i32 %116, i32* %122, align 4
  br label %123

123:                                              ; preds = %115
  %124 = load i32, i32* %14, align 4
  %125 = add nsw i32 %124, 1
  store i32 %125, i32* %14, align 4
  br label %83

126:                                              ; preds = %83
  br label %127

127:                                              ; preds = %126
  %128 = load i32, i32* %13, align 4
  %129 = add nsw i32 %128, 1
  store i32 %129, i32* %13, align 4
  br label %77

130:                                              ; preds = %77
  store i32 0, i32* %15, align 4
  br label %131

131:                                              ; preds = %166, %130
  %132 = load i32, i32* %15, align 4
  %133 = load i32, i32* %2, align 4
  %134 = sub nsw i32 %133, 1
  %135 = icmp sle i32 %132, %134
  br i1 %135, label %136, label %169

136:                                              ; preds = %131
  %137 = load i32, i32* %15, align 4
  %138 = sext i32 %137 to i64
  %139 = getelementptr inbounds [100 x [100 x i32]], [100 x [100 x i32]]* %8, i64 0, i64 %138
  %140 = getelementptr inbounds [100 x i32], [100 x i32]* %139, i64 0, i64 0
  %141 = load i32, i32* %140, align 16
  %142 = call i32 (i8*, ...) @printf(i8* getelementptr inbounds ([3 x i8], [3 x i8]* @.str, i64 0, i64 0), i32 %141)
  %143 = load i32, i32* %5, align 4
  %144 = icmp ne i32 %143, 1
  br i1 %144, label %145, label %164

145:                                              ; preds = %136
  store i32 1, i32* %16, align 4
  br label %146

146:                                              ; preds = %160, %145
  %147 = load i32, i32* %16, align 4
  %148 = load i32, i32* %5, align 4
  %149 = sub nsw i32 %148, 1
  %150 = icmp sle i32 %147, %149
  br i1 %150, label %151, label %163

151:                                              ; preds = %146
  %152 = load i32, i32* %15, align 4
  %153 = sext i32 %152 to i64
  %154 = getelementptr inbounds [100 x [100 x i32]], [100 x [100 x i32]]* %8, i64 0, i64 %153
  %155 = load i32, i32* %16, align 4
  %156 = sext i32 %155 to i64
  %157 = getelementptr inbounds [100 x i32], [100 x i32]* %154, i64 0, i64 %156
  %158 = load i32, i32* %157, align 4
  %159 = call i32 (i8*, ...) @printf(i8* getelementptr inbounds ([4 x i8], [4 x i8]* @.str.1, i64 0, i64 0), i32 %158)
  br label %160

160:                                              ; preds = %151
  %161 = load i32, i32* %16, align 4
  %162 = add nsw i32 %161, 1
  store i32 %162, i32* %16, align 4
  br label %146

163:                                              ; preds = %146
  br label %164

164:                                              ; preds = %163, %136
  %165 = call i32 (i8*, ...) @printf(i8* getelementptr inbounds ([2 x i8], [2 x i8]* @.str.2, i64 0, i64 0))
  br label %166

166:                                              ; preds = %164
  %167 = load i32, i32* %15, align 4
  %168 = add nsw i32 %167, 1
  store i32 %168, i32* %15, align 4
  br label %131

169:                                              ; preds = %131
  ret i32 0
}

declare dso_local i32 @__isoc99_scanf(i8*, ...) #1

declare dso_local i32 @printf(i8*, ...) #1


!llvm.module.flags = !{!0}
!llvm.ident = !{!1}

!0 = !{i32 1, !"wchar_size", i32 4}
!1 = !{!"clang version 10.0.0-4ubuntu1 "}
